target datalayout = "e-m:e-p270:32:32-p271:32:32-p272:64:64-i64:64-i128:128-f80:128-n8:16:32:64-S128"
target triple = "x86_64-pc-linux-gnu"

%class.JfrSymbolTable = type <{ ptr, ptr, ptr, ptr, ptr, ptr, i64, i8, [7 x i8] }>
%class.ListEntry = type <{ %class.JfrHashtableEntry, ptr, i8, i8, i8, [5 x i8] }>
%class.JfrHashtableEntry = type { %class.JfrBasicHashtableEntry, i64 }
%class.JfrBasicHashtableEntry = type { ptr, ptr, i64 }

@_ZL13checkpoint_id = internal global i64 1, align 8

; Function Attrs: mustprogress nounwind uwtable
define linkonce_odr hidden noundef ptr @_ZN11JfrCHeapObj9new_arrayIcEEPT_m(i64 noundef %0) #1 comdat align 2 {
  %2 = alloca i64, align 8
  %3 = alloca ptr, align 8
  store i64 %0, ptr %2, align 8
  %4 = load i64, ptr %2, align 8
  %5 = call noundef ptr @_ZN11JfrCHeapObj23allocate_array_noinlineEmm(i64 noundef %4, i64 noundef 1)
  store ptr %5, ptr %3, align 8
  %6 = load ptr, ptr %3, align 8
  %7 = load i64, ptr %2, align 8
  %8 = mul i64 1, %7
  call void @_ZN11JfrCHeapObj20on_memory_allocationEPKvm(ptr noundef %6, i64 noundef %8)
  %9 = load ptr, ptr %3, align 8
  ret ptr %9
}

; Function Attrs: mustprogress nounwind uwtable
define linkonce_odr hidden void @_ZNK17JfrHashtableEntryIPKcmE6set_idEm(ptr noundef nonnull align 8 dereferenceable(32) %0, i64 noundef %1) #1 comdat align 2 {
  %3 = alloca ptr, align 8
  %4 = alloca i64, align 8
  store ptr %0, ptr %3, align 8
  store i64 %1, ptr %4, align 8
  %5 = load ptr, ptr %3, align 8
  %6 = load i64, ptr %4, align 8
  %7 = getelementptr inbounds %class.JfrHashtableEntry, ptr %5, i32 0, i32 1
  store i64 %6, ptr %7, align 8
  ret void
}

; Function Attrs: mustprogress nounwind uwtable
define internal noundef i64 @_ZL16create_symbol_idm(i64 noundef %0) #1 {
  %2 = alloca i64, align 8
  store i64 %0, ptr %2, align 8
  %3 = load i64, ptr %2, align 8
  %4 = icmp ne i64 %3, 0
  br i1 %4, label %5, label %10

5:                                                ; preds = %1
  %6 = load i64, ptr @_ZL13checkpoint_id, align 8
  %7 = shl i64 %6, 24
  %8 = load i64, ptr %2, align 8
  %9 = or i64 %7, %8
  br label %11

10:                                               ; preds = %1
  br label %11

11:                                               ; preds = %10, %5
  %12 = phi i64 [ %9, %5 ], [ 0, %10 ]
  ret i64 %12
}

; Function Attrs: mustprogress nounwind uwtable
define linkonce_odr hidden void @_ZNK9ListEntryIPKcmE13set_list_nextEPKS2_(ptr noundef nonnull align 8 dereferenceable(43) %0, ptr noundef %1) #1 comdat align 2 {
  %3 = alloca ptr, align 8
  %4 = alloca ptr, align 8
  store ptr %0, ptr %3, align 8
  store ptr %1, ptr %4, align 8
  %5 = load ptr, ptr %3, align 8
  %6 = load ptr, ptr %4, align 8
  %7 = getelementptr inbounds %class.ListEntry, ptr %5, i32 0, i32 1
  store ptr %6, ptr %7, align 8
  ret void
}

; Function Attrs: mustprogress nounwind uwtable
define linkonce_odr hidden void @_ZN22JfrBasicHashtableEntryIPKcE11set_literalES1_(ptr noundef nonnull align 8 dereferenceable(24) %0, ptr noundef %1) #1 comdat align 2 {
  %3 = alloca ptr, align 8
  %4 = alloca ptr, align 8
  store ptr %0, ptr %3, align 8
  store ptr %1, ptr %4, align 8
  %5 = load ptr, ptr %3, align 8
  %6 = load ptr, ptr %4, align 8
  %7 = getelementptr inbounds %class.JfrBasicHashtableEntry, ptr %5, i32 0, i32 1
  store ptr %6, ptr %7, align 8
  ret void
}

; Function Attrs: mustprogress nounwind uwtable
define internal noundef ptr @_ZL25resource_to_c_heap_stringPKc(ptr noundef %0) #1 {
  %2 = alloca ptr, align 8
  %3 = alloca i64, align 8
  %4 = alloca ptr, align 8
  store ptr %0, ptr %2, align 8
  %5 = load ptr, ptr %2, align 8
  %6 = call i64 @strlen(ptr noundef %5) #10
  store i64 %6, ptr %3, align 8
  %7 = load i64, ptr %3, align 8
  %8 = add i64 %7, 1
  %9 = call noundef ptr @_ZN11JfrCHeapObj9new_arrayIcEEPT_m(i64 noundef %8)
  store ptr %9, ptr %4, align 8
  %10 = load ptr, ptr %4, align 8
  %11 = load ptr, ptr %2, align 8
  %12 = load i64, ptr %3, align 8
  %13 = add i64 %12, 1
  %14 = call ptr @strncpy(ptr noundef %10, ptr noundef %11, i64 noundef %13) #9
  %15 = load ptr, ptr %4, align 8
  ret ptr %15
}

; Function Attrs: mustprogress nounwind uwtable
define linkonce_odr hidden noundef ptr @_ZNK22JfrBasicHashtableEntryIPKcE7literalEv(ptr noundef nonnull align 8 dereferenceable(24) %0) #1 comdat align 2 {
  %2 = alloca ptr, align 8
  store ptr %0, ptr %2, align 8
  %3 = load ptr, ptr %2, align 8
  %4 = getelementptr inbounds %class.JfrBasicHashtableEntry, ptr %3, i32 0, i32 1
  %5 = load ptr, ptr %4, align 8
  ret ptr %5
}

; Function Attrs: mustprogress nounwind uwtable
define linkonce_odr hidden void @_ZN14JfrSymbolTable9assign_idIK9ListEntryIPKcmEEEvPT_(ptr noundef nonnull align 8 dereferenceable(57) %0, ptr noundef %1) #1 comdat align 2 {
  %3 = alloca ptr, align 8
  %4 = alloca ptr, align 8
  store ptr %0, ptr %3, align 8
  store ptr %1, ptr %4, align 8
  %5 = load ptr, ptr %3, align 8
  %6 = load ptr, ptr %4, align 8
  %7 = getelementptr inbounds %class.JfrSymbolTable, ptr %5, i32 0, i32 6
  %8 = load i64, ptr %7, align 8
  %9 = add i64 %8, 1
  store i64 %9, ptr %7, align 8
  %10 = call noundef i64 @_ZL16create_symbol_idm(i64 noundef %9)
  call void @_ZNK17JfrHashtableEntryIPKcmE6set_idEm(ptr noundef nonnull align 8 dereferenceable(32) %6, i64 noundef %10)
  ret void
}

; Function Attrs: mustprogress nounwind uwtable
define hidden void @_ZN14JfrSymbolTable7on_linkEPK9ListEntryIPKcmE(ptr noundef nonnull align 8 dereferenceable(57) %0, ptr noundef %1) #1 align 2 {
  %3 = alloca ptr, align 8
  %4 = alloca ptr, align 8
  store ptr %0, ptr %3, align 8
  store ptr %1, ptr %4, align 8
  %5 = load ptr, ptr %3, align 8
  %6 = load ptr, ptr %4, align 8
  call void @_ZN14JfrSymbolTable9assign_idIK9ListEntryIPKcmEEEvPT_(ptr noundef nonnull align 8 dereferenceable(57) %5, ptr noundef %6)
  %7 = load ptr, ptr %4, align 8
  %8 = load ptr, ptr %4, align 8
  %9 = call noundef ptr @_ZNK22JfrBasicHashtableEntryIPKcE7literalEv(ptr noundef nonnull align 8 dereferenceable(24) %8)
  %10 = call noundef ptr @_ZL25resource_to_c_heap_stringPKc(ptr noundef %9)
  call void @_ZN22JfrBasicHashtableEntryIPKcE11set_literalES1_(ptr noundef nonnull align 8 dereferenceable(24) %7, ptr noundef %10)
  %11 = load ptr, ptr %4, align 8
  %12 = getelementptr inbounds %class.JfrSymbolTable, ptr %5, i32 0, i32 3
  %13 = load ptr, ptr %12, align 8
  call void @_ZNK9ListEntryIPKcmE13set_list_nextEPKS2_(ptr noundef nonnull align 8 dereferenceable(43) %11, ptr noundef %13)
  %14 = load ptr, ptr %4, align 8
  %15 = getelementptr inbounds %class.JfrSymbolTable, ptr %5, i32 0, i32 3
  store ptr %14, ptr %15, align 8
  ret void
}