; Function Attrs: mustprogress nounwind uwtable
define hidden void @_ZN14JfrSymbolTable7on_linkEPK9ListEntryIPKcmE(ptr nocapture noundef nonnull align 8 dereferenceable(57) %0, ptr noundef %1) local_unnamed_addr #0 align 2 {
  %3 = getelementptr inbounds i8, ptr %0, i64 48
  %4 = load i64, ptr %3, align 8
  %5 = add i64 %4, 1
  store i64 %5, ptr %3, align 8
  %.not.i.i = icmp eq i64 %5, 0
  %6 = load i64, ptr @_ZL13checkpoint_id, align 8
  %7 = shl i64 %6, 24
  %8 = or i64 %7, %5
  %9 = select i1 %.not.i.i, i64 0, i64 %8
  %10 = getelementptr inbounds i8, ptr %1, i64 24
  store i64 %9, ptr %10, align 8
  %11 = getelementptr inbounds i8, ptr %1, i64 8
  %12 = load ptr, ptr %11, align 8
  %13 = tail call i64 @strlen(ptr noundef nonnull readonly dereferenceable(1) %12) #16
  %14 = add i64 %13, 1
  %15 = tail call noundef ptr @_ZN11JfrCHeapObj23allocate_array_noinlineEmm(i64 noundef %14, i64 noundef 1) #15
  tail call void @_ZN11JfrCHeapObj20on_memory_allocationEPKvm(ptr noundef %15, i64 noundef %14) #15
  %16 = tail call ptr @strncpy(ptr noundef %15, ptr noundef readonly %12, i64 noundef %14) #15
  store ptr %15, ptr %11, align 8
  %17 = getelementptr inbounds i8, ptr %0, i64 24
  %18 = load ptr, ptr %17, align 8
  %19 = getelementptr inbounds i8, ptr %1, i64 32
  store ptr %18, ptr %19, align 8
  store ptr %1, ptr %17, align 8
  ret void
}